target datalayout = "e-m:e-p270:32:32-p271:32:32-p272:64:64-i64:64-i128:128-f80:128-n8:16:32:64-S128"
target triple = "x86_64-pc-linux-gnu"

%struct.git_hash_algo = type { ptr, i32, i64, i64, i64, ptr, ptr, ptr, ptr, ptr, ptr, ptr, ptr, ptr }
%struct.cache_tree = type { i32, %struct.object_id, i32, i32, ptr }
%struct.object_id = type { [32 x i8], i32 }
%struct.cache_tree_sub = type { ptr, i32, i32, i32, [0 x i8] }
%struct.hashmap = type { ptr, ptr, ptr, i32, i32, i32, i32, i8 }
%struct.repository = type { ptr, ptr, ptr, ptr, ptr, %struct.strmap, %struct.strmap, %struct.repo_path_cache, ptr, ptr, ptr, ptr, %struct.repo_settings, ptr, ptr, ptr, ptr, ptr, ptr, i32, i32, i32, ptr, ptr, i32, i32, i8 }
%struct.strmap = type { %struct.hashmap, ptr, i8 }
%struct.repo_path_cache = type { ptr, ptr, ptr, ptr, ptr, ptr, ptr }
%struct.repo_settings = type { i32, i32, i32, i32, i32, i32, i32, i32, i32, i32, i32, i32, ptr, i32, i32, i32, i32, i32, i32, i32, i64, i64, i64 }

@the_repository = external global ptr, align 8
@.str.24 = private unnamed_addr constant [27 x i8] c"cache-tree: internal error\00", align 1
@hash_algos = external constant [3 x %struct.git_hash_algo], align 16

; Function Attrs: inlinehint nounwind uwtable
define internal i32 @hash_algo_by_ptr(ptr noundef %0) #5 {
  %2 = alloca i32, align 4
  %3 = alloca ptr, align 8
  %4 = alloca i64, align 8
  %5 = alloca ptr, align 8
  %6 = alloca i32, align 4
  store ptr %0, ptr %3, align 8, !tbaa !131
  call void @llvm.lifetime.start.p0(i64 8, ptr %4) #10
  store i64 0, ptr %4, align 8, !tbaa !28
  br label %7

7:                                                ; preds = %23, %1
  %8 = load i64, ptr %4, align 8, !tbaa !28
  %9 = icmp ult i64 %8, 3
  br i1 %9, label %10, label %26

10:                                               ; preds = %7
  call void @llvm.lifetime.start.p0(i64 8, ptr %5) #10
  %11 = load i64, ptr %4, align 8, !tbaa !28
  %12 = getelementptr inbounds nuw [3 x %struct.git_hash_algo], ptr @hash_algos, i64 0, i64 %11
  store ptr %12, ptr %5, align 8, !tbaa !131
  %13 = load ptr, ptr %3, align 8, !tbaa !131
  %14 = load ptr, ptr %5, align 8, !tbaa !131
  %15 = icmp eq ptr %13, %14
  br i1 %15, label %16, label %19

16:                                               ; preds = %10
  %17 = load i64, ptr %4, align 8, !tbaa !28
  %18 = trunc i64 %17 to i32
  store i32 %18, ptr %2, align 4
  store i32 1, ptr %6, align 4
  br label %20

19:                                               ; preds = %10
  store i32 0, ptr %6, align 4
  br label %20

20:                                               ; preds = %19, %16
  call void @llvm.lifetime.end.p0(i64 8, ptr %5) #10
  %21 = load i32, ptr %6, align 4
  switch i32 %21, label %27 [
    i32 0, label %22
  ]

22:                                               ; preds = %20
  br label %23

23:                                               ; preds = %22
  %24 = load i64, ptr %4, align 8, !tbaa !28
  %25 = add i64 %24, 1
  store i64 %25, ptr %4, align 8, !tbaa !28
  br label %7, !llvm.loop !133

26:                                               ; preds = %7
  store i32 0, ptr %2, align 4
  store i32 1, ptr %6, align 4
  br label %27

27:                                               ; preds = %26, %20
  call void @llvm.lifetime.end.p0(i64 8, ptr %4) #10
  %28 = load i32, ptr %2, align 4
  ret i32 %28
}

; Function Attrs: nounwind uwtable
define dso_local ptr @cache_tree_sub(ptr noundef %0, ptr noundef %1) #0 {
  %3 = alloca ptr, align 8
  %4 = alloca ptr, align 8
  %5 = alloca i32, align 4
  store ptr %0, ptr %3, align 8, !tbaa !4
  store ptr %1, ptr %4, align 8, !tbaa !23
  call void @llvm.lifetime.start.p0(i64 4, ptr %5) #10
  %6 = load ptr, ptr %4, align 8, !tbaa !23
  %7 = call i64 @strlen(ptr noundef %6) #11
  %8 = trunc i64 %7 to i32
  store i32 %8, ptr %5, align 4, !tbaa !16
  %9 = load ptr, ptr %3, align 8, !tbaa !4
  %10 = load ptr, ptr %4, align 8, !tbaa !23
  %11 = load i32, ptr %5, align 4, !tbaa !16
  %12 = call ptr @find_subtree(ptr noundef %9, ptr noundef %10, i32 noundef %11, i32 noundef 1)
  call void @llvm.lifetime.end.p0(i64 4, ptr %5) #10
  ret ptr %12
}

; Function Attrs: inlinehint nounwind uwtable
define internal void @oidread(ptr noundef %0, ptr noundef %1, ptr noundef %2) #5 {
  %4 = alloca ptr, align 8
  %5 = alloca ptr, align 8
  %6 = alloca ptr, align 8
  store ptr %0, ptr %4, align 8, !tbaa !63
  store ptr %1, ptr %5, align 8, !tbaa !23
  store ptr %2, ptr %6, align 8, !tbaa !131
  %7 = load ptr, ptr %4, align 8, !tbaa !63
  %8 = getelementptr inbounds nuw %struct.object_id, ptr %7, i32 0, i32 0
  %9 = getelementptr inbounds [32 x i8], ptr %8, i64 0, i64 0
  %10 = load ptr, ptr %5, align 8, !tbaa !23
  %11 = load ptr, ptr %6, align 8, !tbaa !131
  %12 = getelementptr inbounds nuw %struct.git_hash_algo, ptr %11, i32 0, i32 2
  %13 = load i64, ptr %12, align 8, !tbaa !80
  call void @llvm.memcpy.p0.p0.i64(ptr align 4 %9, ptr align 1 %10, i64 %13, i1 false)
  %14 = load ptr, ptr %6, align 8, !tbaa !131
  %15 = getelementptr inbounds nuw %struct.git_hash_algo, ptr %14, i32 0, i32 2
  %16 = load i64, ptr %15, align 8, !tbaa !80
  %17 = icmp ult i64 %16, 32
  br i1 %17, label %18, label %30

18:                                               ; preds = %3
  %19 = load ptr, ptr %4, align 8, !tbaa !63
  %20 = getelementptr inbounds nuw %struct.object_id, ptr %19, i32 0, i32 0
  %21 = getelementptr inbounds [32 x i8], ptr %20, i64 0, i64 0
  %22 = load ptr, ptr %6, align 8, !tbaa !131
  %23 = getelementptr inbounds nuw %struct.git_hash_algo, ptr %22, i32 0, i32 2
  %24 = load i64, ptr %23, align 8, !tbaa !80
  %25 = getelementptr inbounds nuw i8, ptr %21, i64 %24
  %26 = load ptr, ptr %6, align 8, !tbaa !131
  %27 = getelementptr inbounds nuw %struct.git_hash_algo, ptr %26, i32 0, i32 2
  %28 = load i64, ptr %27, align 8, !tbaa !80
  %29 = sub i64 32, %28
  call void @llvm.memset.p0.i64(ptr align 1 %25, i8 0, i64 %29, i1 false)
  br label %30

30:                                               ; preds = %18, %3
  %31 = load ptr, ptr %6, align 8, !tbaa !131
  %32 = call i32 @hash_algo_by_ptr(ptr noundef %31)
  %33 = load ptr, ptr %4, align 8, !tbaa !63
  %34 = getelementptr inbounds nuw %struct.object_id, ptr %33, i32 0, i32 1
  store i32 %32, ptr %34, align 4, !tbaa !129
  ret void
}

; Function Attrs: nounwind uwtable
define dso_local ptr @cache_tree() #0 {
  %1 = alloca ptr, align 8
  call void @llvm.lifetime.start.p0(i64 8, ptr %1) #10
  %2 = call ptr @xcalloc(i64 noundef 1, i64 noundef 56)
  store ptr %2, ptr %1, align 8, !tbaa !4
  %3 = load ptr, ptr %1, align 8, !tbaa !4
  %4 = getelementptr inbounds nuw %struct.cache_tree, ptr %3, i32 0, i32 0
  store i32 -1, ptr %4, align 8, !tbaa !9
  %5 = load ptr, ptr %1, align 8, !tbaa !4
  call void @llvm.lifetime.end.p0(i64 8, ptr %1) #10
  ret ptr %5
}

; Function Attrs: nounwind uwtable
define internal ptr @read_one(ptr noundef %0, ptr noundef %1) #0 {
  %3 = alloca ptr, align 8
  %4 = alloca ptr, align 8
  %5 = alloca ptr, align 8
  %6 = alloca ptr, align 8
  %7 = alloca i64, align 8
  %8 = alloca ptr, align 8
  %9 = alloca ptr, align 8
  %10 = alloca ptr, align 8
  %11 = alloca i32, align 4
  %12 = alloca i32, align 4
  %13 = alloca i32, align 4
  %14 = alloca ptr, align 8
  %15 = alloca ptr, align 8
  %16 = alloca ptr, align 8
  %17 = alloca i32, align 4
  store ptr %0, ptr %4, align 8, !tbaa !92
  store ptr %1, ptr %5, align 8, !tbaa !94
  call void @llvm.lifetime.start.p0(i64 8, ptr %6) #10
  %18 = load ptr, ptr %4, align 8, !tbaa !92
  %19 = load ptr, ptr %18, align 8, !tbaa !23
  store ptr %19, ptr %6, align 8, !tbaa !23
  call void @llvm.lifetime.start.p0(i64 8, ptr %7) #10
  %20 = load ptr, ptr %5, align 8, !tbaa !94
  %21 = load i64, ptr %20, align 8, !tbaa !28
  store i64 %21, ptr %7, align 8, !tbaa !28
  call void @llvm.lifetime.start.p0(i64 8, ptr %8) #10
  call void @llvm.lifetime.start.p0(i64 8, ptr %9) #10
  call void @llvm.lifetime.start.p0(i64 8, ptr %10) #10
  call void @llvm.lifetime.start.p0(i64 4, ptr %11) #10
  call void @llvm.lifetime.start.p0(i64 4, ptr %12) #10
  call void @llvm.lifetime.start.p0(i64 4, ptr %13) #10
  %22 = load ptr, ptr @the_repository, align 8, !tbaa !48
  %23 = getelementptr inbounds nuw %struct.repository, ptr %22, i32 0, i32 17
  %24 = load ptr, ptr %23, align 8, !tbaa !66
  %25 = getelementptr inbounds nuw %struct.git_hash_algo, ptr %24, i32 0, i32 2
  %26 = load i64, ptr %25, align 8, !tbaa !80
  %27 = trunc i64 %26 to i32
  store i32 %27, ptr %13, align 4, !tbaa !16
  store ptr null, ptr %10, align 8, !tbaa !4
  br label %28

28:                                               ; preds = %38, %2
  %29 = load i64, ptr %7, align 8, !tbaa !28
  %30 = icmp ne i64 %29, 0
  br i1 %30, label %31, label %36

31:                                               ; preds = %28
  %32 = load ptr, ptr %6, align 8, !tbaa !23
  %33 = load i8, ptr %32, align 1, !tbaa !47
  %34 = sext i8 %33 to i32
  %35 = icmp ne i32 %34, 0
  br label %36

36:                                               ; preds = %31, %28
  %37 = phi i1 [ false, %28 ], [ %35, %31 ]
  br i1 %37, label %38, label %43

38:                                               ; preds = %36
  %39 = load i64, ptr %7, align 8, !tbaa !28
  %40 = add i64 %39, -1
  store i64 %40, ptr %7, align 8, !tbaa !28
  %41 = load ptr, ptr %6, align 8, !tbaa !23
  %42 = getelementptr inbounds nuw i8, ptr %41, i32 1
  store ptr %42, ptr %6, align 8, !tbaa !23
  br label %28, !llvm.loop !96

43:                                               ; preds = %36
  %44 = load i64, ptr %7, align 8, !tbaa !28
  %45 = icmp ne i64 %44, 0
  br i1 %45, label %47, label %46

46:                                               ; preds = %43
  br label %175

47:                                               ; preds = %43
  %48 = load ptr, ptr %6, align 8, !tbaa !23
  %49 = getelementptr inbounds nuw i8, ptr %48, i32 1
  store ptr %49, ptr %6, align 8, !tbaa !23
  %50 = load i64, ptr %7, align 8, !tbaa !28
  %51 = add i64 %50, -1
  store i64 %51, ptr %7, align 8, !tbaa !28
  %52 = call ptr @cache_tree()
  store ptr %52, ptr %10, align 8, !tbaa !4
  %53 = load ptr, ptr %6, align 8, !tbaa !23
  store ptr %53, ptr %8, align 8, !tbaa !23
  %54 = load ptr, ptr %8, align 8, !tbaa !23
  %55 = call i64 @strtol(ptr noundef %54, ptr noundef %9, i32 noundef 10) #10
  %56 = trunc i64 %55 to i32
  %57 = load ptr, ptr %10, align 8, !tbaa !4
  %58 = getelementptr inbounds nuw %struct.cache_tree, ptr %57, i32 0, i32 0
  store i32 %56, ptr %58, align 8, !tbaa !9
  %59 = load ptr, ptr %8, align 8, !tbaa !23
  %60 = load ptr, ptr %9, align 8, !tbaa !23
  %61 = icmp eq ptr %59, %60
  br i1 %61, label %62, label %63

62:                                               ; preds = %47
  br label %175

63:                                               ; preds = %47
  %64 = load ptr, ptr %9, align 8, !tbaa !23
  store ptr %64, ptr %8, align 8, !tbaa !23
  %65 = load ptr, ptr %8, align 8, !tbaa !23
  %66 = call i64 @strtol(ptr noundef %65, ptr noundef %9, i32 noundef 10) #10
  %67 = trunc i64 %66 to i32
  store i32 %67, ptr %12, align 4, !tbaa !16
  %68 = load ptr, ptr %8, align 8, !tbaa !23
  %69 = load ptr, ptr %9, align 8, !tbaa !23
  %70 = icmp eq ptr %68, %69
  br i1 %70, label %71, label %72

71:                                               ; preds = %63
  br label %175

72:                                               ; preds = %63
  br label %73

73:                                               ; preds = %88, %72
  %74 = load i64, ptr %7, align 8, !tbaa !28
  %75 = icmp ne i64 %74, 0
  br i1 %75, label %76, label %86

76:                                               ; preds = %73
  %77 = load ptr, ptr %6, align 8, !tbaa !23
  %78 = load i8, ptr %77, align 1, !tbaa !47
  %79 = sext i8 %78 to i32
  %80 = icmp ne i32 %79, 0
  br i1 %80, label %81, label %86

81:                                               ; preds = %76
  %82 = load ptr, ptr %6, align 8, !tbaa !23
  %83 = load i8, ptr %82, align 1, !tbaa !47
  %84 = sext i8 %83 to i32
  %85 = icmp ne i32 %84, 10
  br label %86

86:                                               ; preds = %81, %76, %73
  %87 = phi i1 [ false, %76 ], [ false, %73 ], [ %85, %81 ]
  br i1 %87, label %88, label %93

88:                                               ; preds = %86
  %89 = load i64, ptr %7, align 8, !tbaa !28
  %90 = add i64 %89, -1
  store i64 %90, ptr %7, align 8, !tbaa !28
  %91 = load ptr, ptr %6, align 8, !tbaa !23
  %92 = getelementptr inbounds nuw i8, ptr %91, i32 1
  store ptr %92, ptr %6, align 8, !tbaa !23
  br label %73, !llvm.loop !97

93:                                               ; preds = %86
  %94 = load i64, ptr %7, align 8, !tbaa !28
  %95 = icmp ne i64 %94, 0
  br i1 %95, label %97, label %96

96:                                               ; preds = %93
  br label %175

97:                                               ; preds = %93
  %98 = load ptr, ptr %6, align 8, !tbaa !23
  %99 = getelementptr inbounds nuw i8, ptr %98, i32 1
  store ptr %99, ptr %6, align 8, !tbaa !23
  %100 = load i64, ptr %7, align 8, !tbaa !28
  %101 = add i64 %100, -1
  store i64 %101, ptr %7, align 8, !tbaa !28
  %102 = load ptr, ptr %10, align 8, !tbaa !4
  %103 = getelementptr inbounds nuw %struct.cache_tree, ptr %102, i32 0, i32 0
  %104 = load i32, ptr %103, align 8, !tbaa !9
  %105 = icmp sle i32 0, %104
  br i1 %105, label %106, label %127

106:                                              ; preds = %97
  %107 = load i64, ptr %7, align 8, !tbaa !28
  %108 = load i32, ptr %13, align 4, !tbaa !16
  %109 = zext i32 %108 to i64
  %110 = icmp ult i64 %107, %109
  br i1 %110, label %111, label %112

111:                                              ; preds = %106
  br label %175

112:                                              ; preds = %106
  %113 = load ptr, ptr %10, align 8, !tbaa !4
  %114 = getelementptr inbounds nuw %struct.cache_tree, ptr %113, i32 0, i32 1
  %115 = load ptr, ptr %6, align 8, !tbaa !23
  %116 = load ptr, ptr @the_repository, align 8, !tbaa !48
  %117 = getelementptr inbounds nuw %struct.repository, ptr %116, i32 0, i32 17
  %118 = load ptr, ptr %117, align 8, !tbaa !66
  call void @oidread(ptr noundef %114, ptr noundef %115, ptr noundef %118)
  %119 = load i32, ptr %13, align 4, !tbaa !16
  %120 = load ptr, ptr %6, align 8, !tbaa !23
  %121 = zext i32 %119 to i64
  %122 = getelementptr inbounds nuw i8, ptr %120, i64 %121
  store ptr %122, ptr %6, align 8, !tbaa !23
  %123 = load i32, ptr %13, align 4, !tbaa !16
  %124 = zext i32 %123 to i64
  %125 = load i64, ptr %7, align 8, !tbaa !28
  %126 = sub i64 %125, %124
  store i64 %126, ptr %7, align 8, !tbaa !28
  br label %127

127:                                              ; preds = %112, %97
  %128 = load i32, ptr %12, align 4, !tbaa !16
  %129 = add nsw i32 %128, 2
  %130 = load ptr, ptr %10, align 8, !tbaa !4
  %131 = getelementptr inbounds nuw %struct.cache_tree, ptr %130, i32 0, i32 3
  store i32 %129, ptr %131, align 4, !tbaa !27
  %132 = load ptr, ptr %10, align 8, !tbaa !4
  %133 = getelementptr inbounds nuw %struct.cache_tree, ptr %132, i32 0, i32 3
  %134 = load i32, ptr %133, align 4, !tbaa !27
  %135 = sext i32 %134 to i64
  %136 = call ptr @xcalloc(i64 noundef %135, i64 noundef 8)
  %137 = load ptr, ptr %10, align 8, !tbaa !4
  %138 = getelementptr inbounds nuw %struct.cache_tree, ptr %137, i32 0, i32 4
  store ptr %136, ptr %138, align 8, !tbaa !18
  store i32 0, ptr %11, align 4, !tbaa !16
  br label %139

139:                                              ; preds = %159, %127
  %140 = load i32, ptr %11, align 4, !tbaa !16
  %141 = load i32, ptr %12, align 4, !tbaa !16
  %142 = icmp slt i32 %140, %141
  br i1 %142, label %143, label %162

143:                                              ; preds = %139
  call void @llvm.lifetime.start.p0(i64 8, ptr %14) #10
  call void @llvm.lifetime.start.p0(i64 8, ptr %15) #10
  call void @llvm.lifetime.start.p0(i64 8, ptr %16) #10
  %144 = load ptr, ptr %6, align 8, !tbaa !23
  store ptr %144, ptr %16, align 8, !tbaa !23
  %145 = call ptr @read_one(ptr noundef %6, ptr noundef %7)
  store ptr %145, ptr %14, align 8, !tbaa !4
  %146 = load ptr, ptr %14, align 8, !tbaa !4
  %147 = icmp ne ptr %146, null
  br i1 %147, label %149, label %148

148:                                              ; preds = %143
  store i32 4, ptr %17, align 4
  br label %156

149:                                              ; preds = %143
  %150 = load ptr, ptr %10, align 8, !tbaa !4
  %151 = load ptr, ptr %16, align 8, !tbaa !23
  %152 = call ptr @cache_tree_sub(ptr noundef %150, ptr noundef %151)
  store ptr %152, ptr %15, align 8, !tbaa !19
  %153 = load ptr, ptr %14, align 8, !tbaa !4
  %154 = load ptr, ptr %15, align 8, !tbaa !19
  %155 = getelementptr inbounds nuw %struct.cache_tree_sub, ptr %154, i32 0, i32 0
  store ptr %153, ptr %155, align 8, !tbaa !4
  store i32 0, ptr %17, align 4
  br label %156

156:                                              ; preds = %148, %149
  call void @llvm.lifetime.end.p0(i64 8, ptr %16) #10
  call void @llvm.lifetime.end.p0(i64 8, ptr %15) #10
  call void @llvm.lifetime.end.p0(i64 8, ptr %14) #10
  %157 = load i32, ptr %17, align 4
  switch i32 %157, label %176 [
    i32 0, label %158
    i32 4, label %175
  ]

158:                                              ; preds = %156
  br label %159

159:                                              ; preds = %158
  %160 = load i32, ptr %11, align 4, !tbaa !16
  %161 = add nsw i32 %160, 1
  store i32 %161, ptr %11, align 4, !tbaa !16
  br label %139, !llvm.loop !98

162:                                              ; preds = %139
  %163 = load i32, ptr %12, align 4, !tbaa !16
  %164 = load ptr, ptr %10, align 8, !tbaa !4
  %165 = getelementptr inbounds nuw %struct.cache_tree, ptr %164, i32 0, i32 2
  %166 = load i32, ptr %165, align 8, !tbaa !17
  %167 = icmp ne i32 %163, %166
  br i1 %167, label %168, label %169

168:                                              ; preds = %162
  call void (ptr, ...) @die(ptr noundef @.str.24) #12
  unreachable

169:                                              ; preds = %162
  %170 = load ptr, ptr %6, align 8, !tbaa !23
  %171 = load ptr, ptr %4, align 8, !tbaa !92
  store ptr %170, ptr %171, align 8, !tbaa !23
  %172 = load i64, ptr %7, align 8, !tbaa !28
  %173 = load ptr, ptr %5, align 8, !tbaa !94
  store i64 %172, ptr %173, align 8, !tbaa !28
  %174 = load ptr, ptr %10, align 8, !tbaa !4
  store ptr %174, ptr %3, align 8
  store i32 1, ptr %17, align 4
  br label %176

175:                                              ; preds = %156, %111, %96, %71, %62, %46
  call void @cache_tree_free(ptr noundef %10)
  store ptr null, ptr %3, align 8
  store i32 1, ptr %17, align 4
  br label %176

176:                                              ; preds = %175, %169, %156
  call void @llvm.lifetime.end.p0(i64 4, ptr %13) #10
  call void @llvm.lifetime.end.p0(i64 4, ptr %12) #10
  call void @llvm.lifetime.end.p0(i64 4, ptr %11) #10
  call void @llvm.lifetime.end.p0(i64 8, ptr %10) #10
  call void @llvm.lifetime.end.p0(i64 8, ptr %9) #10
  call void @llvm.lifetime.end.p0(i64 8, ptr %8) #10
  call void @llvm.lifetime.end.p0(i64 8, ptr %7) #10
  call void @llvm.lifetime.end.p0(i64 8, ptr %6) #10
  %177 = load ptr, ptr %3, align 8
  ret ptr %177
}