; Function Attrs: nounwind uwtable
define internal fastcc noundef ptr @read_one(ptr noundef nonnull captures(none) %0, ptr noundef nonnull captures(none) %1) unnamed_addr #0 {
  %3 = alloca ptr, align 8
  %4 = alloca i64, align 8
  %5 = alloca ptr, align 8
  %6 = alloca ptr, align 8
  call void @llvm.lifetime.start.p0(i64 8, ptr nonnull %3) #18
  %7 = load ptr, ptr %0, align 8, !tbaa !81
  call void @llvm.lifetime.start.p0(i64 8, ptr nonnull %4) #18
  %8 = load i64, ptr %1, align 8, !tbaa !82
  call void @llvm.lifetime.start.p0(i64 8, ptr nonnull %5) #18
  call void @llvm.lifetime.start.p0(i64 8, ptr nonnull %6) #18
  %9 = load ptr, ptr @the_repository, align 8, !tbaa !40
  %10 = getelementptr inbounds nuw i8, ptr %9, i64 400
  %11 = load ptr, ptr %10, align 8, !tbaa !57
  %12 = getelementptr inbounds nuw i8, ptr %11, i64 16
  %13 = load i64, ptr %12, align 8, !tbaa !76
  store ptr null, ptr %6, align 8, !tbaa !12
  %.not53 = icmp eq i64 %8, 0
  br i1 %.not53, label %.critedge.thread, label %.lr.ph

.lr.ph:                                           ; preds = %2, %17
  %14 = phi ptr [ %19, %17 ], [ %7, %2 ]
  %15 = phi i64 [ %18, %17 ], [ %8, %2 ]
  %16 = load i8, ptr %14, align 1, !tbaa !38
  %.not32 = icmp eq i8 %16, 0
  br i1 %.not32, label %.critedge, label %17

17:                                               ; preds = %.lr.ph
  %18 = add i64 %15, -1
  %19 = getelementptr inbounds nuw i8, ptr %14, i64 1
  %.not = icmp eq i64 %18, 0
  br i1 %.not, label %.critedge.thread, label %.lr.ph, !llvm.loop !83

.critedge:                                        ; preds = %.lr.ph
  %20 = getelementptr inbounds nuw i8, ptr %14, i64 1
  store ptr %20, ptr %3, align 8, !tbaa !81
  %21 = add i64 %15, -1
  store i64 %21, ptr %4, align 8, !tbaa !82
  %22 = tail call noundef ptr @xcalloc(i64 noundef 1, i64 noundef 56) #18
  store i32 -1, ptr %22, align 8, !tbaa !4
  store ptr %22, ptr %6, align 8, !tbaa !12
  %23 = call i64 @strtol(ptr noundef nonnull %20, ptr noundef nonnull %5, i32 noundef 10) #18
  %24 = trunc i64 %23 to i32
  store i32 %24, ptr %22, align 8, !tbaa !4
  %25 = load ptr, ptr %5, align 8, !tbaa !81
  %26 = icmp eq ptr %20, %25
  br i1 %26, label %.critedge.thread, label %27

27:                                               ; preds = %.critedge
  %28 = call i64 @strtol(ptr noundef %25, ptr noundef nonnull %5, i32 noundef 10) #18
  %29 = trunc i64 %28 to i32
  %30 = load ptr, ptr %5, align 8, !tbaa !81
  %31 = icmp eq ptr %25, %30
  %.not3461 = icmp eq i64 %21, 0
  %or.cond = or i1 %31, %.not3461
  br i1 %or.cond, label %.critedge.thread, label %.lr.ph62

.lr.ph62:                                         ; preds = %27, %35
  %32 = phi ptr [ %37, %35 ], [ %20, %27 ]
  %33 = phi i64 [ %36, %35 ], [ %21, %27 ]
  %34 = load i8, ptr %32, align 1, !tbaa !38
  switch i8 %34, label %35 [
    i8 0, label %.critedge2
    i8 10, label %.critedge2
  ]

35:                                               ; preds = %.lr.ph62
  %36 = add i64 %33, -1
  %37 = getelementptr inbounds nuw i8, ptr %32, i64 1
  %.not34 = icmp eq i64 %36, 0
  br i1 %.not34, label %.critedge.thread, label %.lr.ph62, !llvm.loop !84

.critedge2:                                       ; preds = %.lr.ph62, %.lr.ph62
  %38 = getelementptr inbounds nuw i8, ptr %32, i64 1
  store ptr %38, ptr %3, align 8, !tbaa !81
  %39 = add i64 %33, -1
  store i64 %39, ptr %4, align 8, !tbaa !82
  %40 = load i32, ptr %22, align 8, !tbaa !4
  %41 = icmp sgt i32 %40, -1
  br i1 %41, label %42, label %65

42:                                               ; preds = %.critedge2
  %43 = and i64 %13, 4294967295
  %44 = icmp ult i64 %39, %43
  br i1 %44, label %.critedge.thread, label %45

45:                                               ; preds = %42
  %46 = getelementptr inbounds nuw i8, ptr %22, i64 4
  %47 = load ptr, ptr @the_repository, align 8, !tbaa !40
  %48 = getelementptr inbounds nuw i8, ptr %47, i64 400
  %49 = load ptr, ptr %48, align 8, !tbaa !57
  %50 = getelementptr inbounds nuw i8, ptr %49, i64 16
  %51 = load i64, ptr %50, align 8, !tbaa !76
  tail call void @llvm.memcpy.p0.p0.i64(ptr nonnull align 4 %46, ptr nonnull readonly align 1 %38, i64 %51, i1 false)
  %52 = load i64, ptr %50, align 8, !tbaa !76
  %53 = icmp ult i64 %52, 32
  br i1 %53, label %54, label %.preheader

54:                                               ; preds = %45
  %55 = getelementptr inbounds nuw i8, ptr %46, i64 %52
  %56 = sub nuw nsw i64 32, %52
  tail call void @llvm.memset.p0.i64(ptr nonnull align 1 %55, i8 0, i64 %56, i1 false)
  br label %.preheader

.preheader:                                       ; preds = %54, %45
  br label %57

57:                                               ; preds = %.preheader, %59
  %.0811.i.i = phi i64 [ %60, %59 ], [ 0, %.preheader ]
  %58 = getelementptr inbounds nuw [3 x %struct.git_hash_algo], ptr @hash_algos, i64 0, i64 %.0811.i.i
  %.not.i.i = icmp eq ptr %49, %58
  br i1 %.not.i.i, label %.split.loop.exit9.i.i, label %59

59:                                               ; preds = %57
  %60 = add nuw nsw i64 %.0811.i.i, 1
  %exitcond.not.i.i = icmp eq i64 %60, 3
  br i1 %exitcond.not.i.i, label %oidread.exit, label %57, !llvm.loop !85

.split.loop.exit9.i.i:                            ; preds = %57
  %61 = trunc nuw nsw i64 %.0811.i.i to i32
  br label %oidread.exit

oidread.exit:                                     ; preds = %59, %.split.loop.exit9.i.i
  %.2.i.i = phi i32 [ %61, %.split.loop.exit9.i.i ], [ 0, %59 ]
  %62 = getelementptr inbounds nuw i8, ptr %22, i64 36
  store i32 %.2.i.i, ptr %62, align 4, !tbaa !52
  %63 = getelementptr inbounds nuw i8, ptr %38, i64 %43
  store ptr %63, ptr %3, align 8, !tbaa !81
  %64 = sub i64 %39, %43
  store i64 %64, ptr %4, align 8, !tbaa !82
  br label %65

65:                                               ; preds = %oidread.exit, %.critedge2
  %66 = add nsw i32 %29, 2
  %67 = getelementptr inbounds nuw i8, ptr %22, i64 44
  store i32 %66, ptr %67, align 4, !tbaa !22
  %68 = sext i32 %66 to i64
  %69 = tail call ptr @xcalloc(i64 noundef %68, i64 noundef 8) #18
  %70 = getelementptr inbounds nuw i8, ptr %22, i64 48
  store ptr %69, ptr %70, align 8, !tbaa !15
  %71 = icmp sgt i32 %29, 0
  br i1 %71, label %.lr.ph66, label %._crit_edge

.lr.ph66:                                         ; preds = %65, %74
  %.02465 = phi i32 [ %78, %74 ], [ 0, %65 ]
  %72 = load ptr, ptr %3, align 8, !tbaa !81
  %73 = call fastcc ptr @read_one(ptr noundef %3, ptr noundef %4)
  %.not39 = icmp eq ptr %73, null
  br i1 %.not39, label %.critedge.thread, label %74

74:                                               ; preds = %.lr.ph66
  %75 = tail call i64 @strlen(ptr noundef nonnull readonly dereferenceable(1) %72) #19
  %76 = trunc i64 %75 to i32
  %77 = tail call fastcc ptr @find_subtree(ptr noundef nonnull %22, ptr noundef nonnull readonly %72, i32 noundef %76, i32 noundef 1)
  store ptr %73, ptr %77, align 8, !tbaa !12
  %78 = add nuw nsw i32 %.02465, 1
  %exitcond.not = icmp eq i32 %78, %29
  br i1 %exitcond.not, label %._crit_edge, label %.lr.ph66, !llvm.loop !86

._crit_edge:                                      ; preds = %74, %65
  %79 = getelementptr inbounds nuw i8, ptr %22, i64 40
  %80 = load i32, ptr %79, align 8, !tbaa !14
  %.not38 = icmp eq i32 %80, %29
  br i1 %.not38, label %82, label %81

81:                                               ; preds = %._crit_edge
  tail call void (ptr, ...) @die(ptr noundef nonnull @.str.24) #20
  unreachable

82:                                               ; preds = %._crit_edge
  %83 = load ptr, ptr %3, align 8, !tbaa !81
  store ptr %83, ptr %0, align 8, !tbaa !81
  %84 = load i64, ptr %4, align 8, !tbaa !82
  store i64 %84, ptr %1, align 8, !tbaa !82
  br label %85

.critedge.thread:                                 ; preds = %17, %35, %.lr.ph66, %2, %42, %27, %.critedge
  call void @cache_tree_free(ptr noundef nonnull %6)
  br label %85

85:                                               ; preds = %.critedge.thread, %82
  %.023 = phi ptr [ null, %.critedge.thread ], [ %22, %82 ]
  call void @llvm.lifetime.end.p0(i64 8, ptr nonnull %6) #18
  call void @llvm.lifetime.end.p0(i64 8, ptr nonnull %5) #18
  call void @llvm.lifetime.end.p0(i64 8, ptr nonnull %4) #18
  call void @llvm.lifetime.end.p0(i64 8, ptr nonnull %3) #18
  ret ptr %.023
}